; Listing generated by Microsoft (R) Optimizing Compiler Version 19.29.30133.0 

	TITLE	d:\studing\конструирование программного обеспечения\лабораторные работы\lab_01\lab_01\zad_01\release\zad_01.obj
	.686P
	.XMM
	include listing.inc
	.model	flat

INCLUDELIB OLDNAMES

PUBLIC	??_C@_03OJJHGHEE@Rus@				; `string'
PUBLIC	??_C@_0DA@CAIPLFDO@?B?b?e?d?h?r?e?5?d?$OA?r?s?5?b?5?t?n?p?l?$OA?r?e?5?D?D?L?L?C?C?C?C@ ; `string'
PUBLIC	??_C@_0BN@NLLMMOPA@?B?b?e?d?h?r?e?5?d?$OA?r?s?5?d?m?$PP?5?p?n?f?d?e?m?m?h?$PP?3?5@ ; `string'
PUBLIC	??_C@_0BD@IKDKPIAI@?O?n?p?$PP?d?j?n?b?$PL?i?5?m?n?l?e?p?3?5@ ; `string'
PUBLIC	??_C@_0CA@MNLKCKLN@?O?n?p?$PP?d?j?n?b?$PL?i?5?m?n?l?e?p?5?d?m?$PP?5?p?n?f?d?e?m?h?$PP?3?5@ ; `string'
PUBLIC	??_C@_0CC@DHIPJDDH@?D?m?e?i?5?d?n?5?a?k?h?f?$OA?i?x?e?c?n?5?d?m?$PP?5?p?n?f?d?e?m?h?$PP@ ; `string'
PUBLIC	??_C@_07GAHJDHGN@?6Error?$CB@			; `string'
PUBLIC	??_C@_0CD@KJOIHFHK@?F?e?k?$OA?e?r?e?5?o?p?n?d?n?k?f?h?r?$PM?$DP?$CI1?9?D?$MA?0?52?9?M?E?R@ ; `string'
PUBLIC	??_C@_0BG@PNINEMMD@?$NN?r?n?r?5?c?n?d?5?b?h?q?n?j?n?q?m?$PL?i?$CB?5@ ; `string'
PUBLIC	??_C@_0BD@GEEDNKFK@?C?n?d?5?m?e?5?b?h?q?n?j?n?q?m?$PL?i?$CB@ ; `string'
EXTRN	__imp_?rdstate@ios_base@std@@QBEHXZ:PROC
EXTRN	__imp_?good@ios_base@std@@QBE_NXZ:PROC
EXTRN	__imp_?flags@ios_base@std@@QBEHXZ:PROC
EXTRN	__imp_?width@ios_base@std@@QBE_JXZ:PROC
EXTRN	__imp_?width@ios_base@std@@QAE_J_J@Z:PROC
EXTRN	__imp_??5?$basic_istream@DU?$char_traits@D@std@@@std@@QAEAAV01@AAH@Z:PROC
EXTRN	__imp_??6?$basic_ostream@DU?$char_traits@D@std@@@std@@QAEAAV01@H@Z:PROC
EXTRN	__imp_??6?$basic_ostream@DU?$char_traits@D@std@@@std@@QAEAAV01@P6AAAV01@AAV01@@Z@Z:PROC
EXTRN	__imp_?fill@?$basic_ios@DU?$char_traits@D@std@@@std@@QBEDXZ:PROC
EXTRN	__imp_?rdbuf@?$basic_ios@DU?$char_traits@D@std@@@std@@QBEPAV?$basic_streambuf@DU?$char_traits@D@std@@@2@XZ:PROC
EXTRN	__imp_?setstate@?$basic_ios@DU?$char_traits@D@std@@@std@@QAEXH_N@Z:PROC
EXTRN	__imp_?flush@?$basic_ostream@DU?$char_traits@D@std@@@std@@QAEAAV12@XZ:PROC
EXTRN	__imp_?_Osfx@?$basic_ostream@DU?$char_traits@D@std@@@std@@QAEXXZ:PROC
EXTRN	__imp_?tie@?$basic_ios@DU?$char_traits@D@std@@@std@@QBEPAV?$basic_ostream@DU?$char_traits@D@std@@@2@XZ:PROC
EXTRN	__imp_?sputc@?$basic_streambuf@DU?$char_traits@D@std@@@std@@QAEHD@Z:PROC
EXTRN	__imp_?put@?$basic_ostream@DU?$char_traits@D@std@@@std@@QAEAAV12@D@Z:PROC
EXTRN	__imp_?widen@?$basic_ios@DU?$char_traits@D@std@@@std@@QBEDD@Z:PROC
EXTRN	__imp_?sputn@?$basic_streambuf@DU?$char_traits@D@std@@@std@@QAE_JPBD_J@Z:PROC
EXTRN	__imp____std_terminate:PROC
EXTRN	__imp_?cin@std@@3V?$basic_istream@DU?$char_traits@D@std@@@1@A:BYTE
EXTRN	__imp_?uncaught_exception@std@@YA_NXZ:PROC
EXTRN	__imp_?cout@std@@3V?$basic_ostream@DU?$char_traits@D@std@@@1@A:BYTE
EXTRN	__imp__setlocale:PROC
EXTRN	@__security_check_cookie@4:PROC
EXTRN	__imp____CxxFrameHandler3:PROC
?_Fake_alloc@std@@3U_Fake_allocator@1@B	ORG $+1		; std::_Fake_alloc
CONST	ENDS
;	COMDAT ??_C@_0BD@GEEDNKFK@?C?n?d?5?m?e?5?b?h?q?n?j?n?q?m?$PL?i?$CB@
CONST	SEGMENT
??_C@_0BD@GEEDNKFK@?C?n?d?5?m?e?5?b?h?q?n?j?n?q?m?$PL?i?$CB@ DB 0c3H, 0eeH
	DB	0e4H, ' ', 0edH, 0e5H, ' ', 0e2H, 0e8H, 0f1H, 0eeH, 0eaH, 0eeH
	DB	0f1H, 0edH, 0fbH, 0e9H, '!', 00H		; `string'
CONST	ENDS
;	COMDAT ??_C@_0BG@PNINEMMD@?$NN?r?n?r?5?c?n?d?5?b?h?q?n?j?n?q?m?$PL?i?$CB?5@
CONST	SEGMENT
??_C@_0BG@PNINEMMD@?$NN?r?n?r?5?c?n?d?5?b?h?q?n?j?n?q?m?$PL?i?$CB?5@ DB 0ddH
	DB	0f2H, 0eeH, 0f2H, ' ', 0e3H, 0eeH, 0e4H, ' ', 0e2H, 0e8H, 0f1H
	DB	0eeH, 0eaH, 0eeH, 0f1H, 0edH, 0fbH, 0e9H, '! ', 00H ; `string'
CONST	ENDS
;	COMDAT ??_C@_0CD@KJOIHFHK@?F?e?k?$OA?e?r?e?5?o?p?n?d?n?k?f?h?r?$PM?$DP?$CI1?9?D?$MA?0?52?9?M?E?R@
CONST	SEGMENT
??_C@_0CD@KJOIHFHK@?F?e?k?$OA?e?r?e?5?o?p?n?d?n?k?f?h?r?$PM?$DP?$CI1?9?D?$MA?0?52?9?M?E?R@ DB 0c6H
	DB	0e5H, 0ebH, 0e0H, 0e5H, 0f2H, 0e5H, ' ', 0efH, 0f0H, 0eeH, 0e4H
	DB	0eeH, 0ebH, 0e6H, 0e8H, 0f2H, 0fcH, '?(1-', 0c4H, 0c0H, ', 2-', 0cdH
	DB	0c5H, 0d2H, '): ', 00H			; `string'
CONST	ENDS
;	COMDAT ??_C@_07GAHJDHGN@?6Error?$CB@
CONST	SEGMENT
??_C@_07GAHJDHGN@?6Error?$CB@ DB 0aH, 'Error!', 00H	; `string'
CONST	ENDS
;	COMDAT ??_C@_0CC@DHIPJDDH@?D?m?e?i?5?d?n?5?a?k?h?f?$OA?i?x?e?c?n?5?d?m?$PP?5?p?n?f?d?e?m?h?$PP@
CONST	SEGMENT
??_C@_0CC@DHIPJDDH@?D?m?e?i?5?d?n?5?a?k?h?f?$OA?i?x?e?c?n?5?d?m?$PP?5?p?n?f?d?e?m?h?$PP@ DB 0c4H
	DB	0edH, 0e5H, 0e9H, ' ', 0e4H, 0eeH, ' ', 0e1H, 0ebH, 0e8H, 0e6H
	DB	0e0H, 0e9H, 0f8H, 0e5H, 0e3H, 0eeH, ' ', 0e4H, 0edH, 0ffH, ' ', 0f0H
	DB	0eeH, 0e6H, 0e4H, 0e5H, 0edH, 0e8H, 0ffH, ': ', 00H ; `string'
CONST	ENDS
;	COMDAT ??_C@_0CA@MNLKCKLN@?O?n?p?$PP?d?j?n?b?$PL?i?5?m?n?l?e?p?5?d?m?$PP?5?p?n?f?d?e?m?h?$PP?3?5@
CONST	SEGMENT
??_C@_0CA@MNLKCKLN@?O?n?p?$PP?d?j?n?b?$PL?i?5?m?n?l?e?p?5?d?m?$PP?5?p?n?f?d?e?m?h?$PP?3?5@ DB 0cfH
	DB	0eeH, 0f0H, 0ffH, 0e4H, 0eaH, 0eeH, 0e2H, 0fbH, 0e9H, ' ', 0edH
	DB	0eeH, 0ecH, 0e5H, 0f0H, ' ', 0e4H, 0edH, 0ffH, ' ', 0f0H, 0eeH
	DB	0e6H, 0e4H, 0e5H, 0edH, 0e8H, 0ffH, ': ', 00H ; `string'
CONST	ENDS
;	COMDAT ??_C@_0BD@IKDKPIAI@?O?n?p?$PP?d?j?n?b?$PL?i?5?m?n?l?e?p?3?5@
CONST	SEGMENT
??_C@_0BD@IKDKPIAI@?O?n?p?$PP?d?j?n?b?$PL?i?5?m?n?l?e?p?3?5@ DB 0cfH, 0eeH
	DB	0f0H, 0ffH, 0e4H, 0eaH, 0eeH, 0e2H, 0fbH, 0e9H, ' ', 0edH, 0eeH
	DB	0ecH, 0e5H, 0f0H, ': ', 00H			; `string'
CONST	ENDS
;	COMDAT ??_C@_0BN@NLLMMOPA@?B?b?e?d?h?r?e?5?d?$OA?r?s?5?d?m?$PP?5?p?n?f?d?e?m?m?h?$PP?3?5@
CONST	SEGMENT
??_C@_0BN@NLLMMOPA@?B?b?e?d?h?r?e?5?d?$OA?r?s?5?d?m?$PP?5?p?n?f?d?e?m?m?h?$PP?3?5@ DB 0c2H
	DB	0e2H, 0e5H, 0e4H, 0e8H, 0f2H, 0e5H, ' ', 0e4H, 0e0H, 0f2H, 0f3H
	DB	' ', 0e4H, 0edH, 0ffH, ' ', 0f0H, 0eeH, 0e6H, 0e4H, 0e5H, 0edH
	DB	0edH, 0e8H, 0ffH, ': ', 00H			; `string'
CONST	ENDS
;	COMDAT ??_C@_0DA@CAIPLFDO@?B?b?e?d?h?r?e?5?d?$OA?r?s?5?b?5?t?n?p?l?$OA?r?e?5?D?D?L?L?C?C?C?C@
CONST	SEGMENT
??_C@_0DA@CAIPLFDO@?B?b?e?d?h?r?e?5?d?$OA?r?s?5?b?5?t?n?p?l?$OA?r?e?5?D?D?L?L?C?C?C?C@ DB 0c2H
	DB	0e2H, 0e5H, 0e4H, 0e8H, 0f2H, 0e5H, ' ', 0e4H, 0e0H, 0f2H, 0f3H
	DB	' ', 0e2H, ' ', 0f4H, 0eeH, 0f0H, 0ecH, 0e0H, 0f2H, 0e5H, ' ', 0c4H
	DB	0c4H, 0ccH, 0ccH, 0c3H, 0c3H, 0c3H, 0c3H, '(', 0e1H, 0e5H, 0e7H
	DB	' ', 0efH, 0f0H, 0eeH, 0e1H, 0e5H, 0ebH, 0eeH, 0e2H, '): ', 00H ; `string'
CONST	ENDS
;	COMDAT ??_C@_03OJJHGHEE@Rus@
CONST	SEGMENT
??_C@_03OJJHGHEE@Rus@ DB 'Rus', 00H			; `string'
CONST	ENDS
PUBLIC	??$endl@DU?$char_traits@D@std@@@std@@YAAAV?$basic_ostream@DU?$char_traits@D@std@@@0@AAV10@@Z ; std::endl<char,std::char_traits<char> >
PUBLIC	??$?6U?$char_traits@D@std@@@std@@YAAAV?$basic_ostream@DU?$char_traits@D@std@@@0@AAV10@PBD@Z ; std::operator<<<std::char_traits<char> >
PUBLIC	??0_Sentry_base@?$basic_ostream@DU?$char_traits@D@std@@@std@@QAE@AAV12@@Z ; std::basic_ostream<char,std::char_traits<char> >::_Sentry_base::_Sentry_base
PUBLIC	??1_Sentry_base@?$basic_ostream@DU?$char_traits@D@std@@@std@@QAE@XZ ; std::basic_ostream<char,std::char_traits<char> >::_Sentry_base::~_Sentry_base
PUBLIC	?length@?$_Narrow_char_traits@DH@std@@SAIQBD@Z	; std::_Narrow_char_traits<char,int>::length
PUBLIC	?eq_int_type@?$_Narrow_char_traits@DH@std@@SA_NABH0@Z ; std::_Narrow_char_traits<char,int>::eq_int_type
PUBLIC	?eof@?$_Narrow_char_traits@DH@std@@SAHXZ	; std::_Narrow_char_traits<char,int>::eof
PUBLIC	??0sentry@?$basic_ostream@DU?$char_traits@D@std@@@std@@QAE@AAV12@@Z ; std::basic_ostream<char,std::char_traits<char> >::sentry::sentry
PUBLIC	??1sentry@?$basic_ostream@DU?$char_traits@D@std@@@std@@QAE@XZ ; std::basic_ostream<char,std::char_traits<char> >::sentry::~sentry
PUBLIC	??Bsentry@?$basic_ostream@DU?$char_traits@D@std@@@std@@QBE_NXZ ; std::basic_ostream<char,std::char_traits<char> >::sentry::operator bool
PUBLIC	?function_visYear@@YAHHQAH@Z			; function_visYear
PUBLIC	?function_numberDay@@YAHHPAHQAHH@Z		; function_numberDay
PUBLIC	_main
PUBLIC	__xmm@0000001e0000001f0000001c0000001f
PUBLIC	__xmm@0000001f0000001e0000001f0000001e
PUBLIC	__xmm@0000001f0000001f0000001e0000001f
EXTRN	___CxxFrameHandler3:PROC
EXTRN	___std_terminate:PROC
EXTRN	___security_cookie:DWORD
;	COMDAT __xmm@0000001f0000001f0000001e0000001f
CONST	SEGMENT
__xmm@0000001f0000001f0000001e0000001f DB 01fH, 00H, 00H, 00H, 01eH, 00H, 00H
	DB	00H, 01fH, 00H, 00H, 00H, 01fH, 00H, 00H, 00H
CONST	ENDS
;	COMDAT __xmm@0000001f0000001e0000001f0000001e
CONST	SEGMENT
__xmm@0000001f0000001e0000001f0000001e DB 01eH, 00H, 00H, 00H, 01fH, 00H, 00H
	DB	00H, 01eH, 00H, 00H, 00H, 01fH, 00H, 00H, 00H
CONST	ENDS
;	COMDAT __xmm@0000001e0000001f0000001c0000001f
CONST	SEGMENT
__xmm@0000001e0000001f0000001c0000001f DB 01fH, 00H, 00H, 00H, 01cH, 00H, 00H
	DB	00H, 01fH, 00H, 00H, 00H, 01eH, 00H, 00H, 00H
CONST	ENDS
;	COMDAT xdata$x
xdata$x	SEGMENT
__ehfuncinfo$??1sentry@?$basic_ostream@DU?$char_traits@D@std@@@std@@QAE@XZ DQ 00000000119930522r ; 2.33398e-314
	DD	FLAT:__unwindtable$??1sentry@?$basic_ostream@DU?$char_traits@D@std@@@std@@QAE@XZ
	DQ	00000000000000000r		; 0
	DQ	00000000000000000r		; 0
	DQ	00000000500000000r		; 1.061e-313
__unwindtable$??1sentry@?$basic_ostream@DU?$char_traits@D@std@@@std@@QAE@XZ DD 0ffffffffH
	DD	FLAT:___std_terminate
xdata$x	ENDS
;	COMDAT xdata$x
xdata$x	SEGMENT
__ehfuncinfo$??0sentry@?$basic_ostream@DU?$char_traits@D@std@@@std@@QAE@AAV12@@Z DQ 00000000119930522r ; 2.33398e-314
	DD	FLAT:__unwindtable$??0sentry@?$basic_ostream@DU?$char_traits@D@std@@@std@@QAE@AAV12@@Z
	DQ	00000000000000000r		; 0
	DQ	00000000000000000r		; 0
	DQ	00000000100000000r		; 2.122e-314
__unwindtable$??0sentry@?$basic_ostream@DU?$char_traits@D@std@@@std@@QAE@AAV12@@Z DD 0ffffffffH
	DD	FLAT:__unwindfunclet$??0sentry@?$basic_ostream@DU?$char_traits@D@std@@@std@@QAE@AAV12@@Z$0
xdata$x	ENDS
;	COMDAT xdata$x
xdata$x	SEGMENT
__ehfuncinfo$??1_Sentry_base@?$basic_ostream@DU?$char_traits@D@std@@@std@@QAE@XZ DQ 00000000019930522r ; 2.11987e-315
	DQ	00000000000000000r		; 0
	DQ	00000000000000000r		; 0
	DQ	00000000000000000r		; 0
	DD	05H
xdata$x	ENDS
;	COMDAT xdata$x
xdata$x	SEGMENT
__ehfuncinfo$??$?6U?$char_traits@D@std@@@std@@YAAAV?$basic_ostream@DU?$char_traits@D@std@@@0@AAV10@PBD@Z DQ 00000000619930522r ; 1.2944e-313
	DD	FLAT:__unwindtable$??$?6U?$char_traits@D@std@@@std@@YAAAV?$basic_ostream@DU?$char_traits@D@std@@@0@AAV10@PBD@Z
	DD	01H
	DD	FLAT:__tryblocktable$??$?6U?$char_traits@D@std@@@std@@YAAAV?$basic_ostream@DU?$char_traits@D@std@@@0@AAV10@PBD@Z
	DQ	00000000000000000r		; 0
	DQ	00000000100000000r		; 2.122e-314
__unwindtable$??$?6U?$char_traits@D@std@@@std@@YAAAV?$basic_ostream@DU?$char_traits@D@std@@@0@AAV10@PBD@Z DD 0ffffffffH
	DD	FLAT:__unwindfunclet$??$?6U?$char_traits@D@std@@@std@@YAAAV?$basic_ostream@DU?$char_traits@D@std@@@0@AAV10@PBD@Z$3
	DD	0ffffffffH
	DD	FLAT:__unwindfunclet$??$?6U?$char_traits@D@std@@@std@@YAAAV?$basic_ostream@DU?$char_traits@D@std@@@0@AAV10@PBD@Z$2
	DQ	00000000000000001r		; 4.94066e-324
	DQ	00000000000000001r		; 4.94066e-324
	DD	0ffffffffH
	DD	FLAT:___std_terminate
	DD	04H
	DD	FLAT:___std_terminate
__tryblocktable$??$?6U?$char_traits@D@std@@@std@@YAAAV?$basic_ostream@DU?$char_traits@D@std@@@0@AAV10@PBD@Z DQ 00000000200000002r ; 4.24399e-314
	DQ	00000000100000003r		; 2.122e-314
	DD	FLAT:__catchsym$??$?6U?$char_traits@D@std@@@std@@YAAAV?$basic_ostream@DU?$char_traits@D@std@@@0@AAV10@PBD@Z$6
__catchsym$??$?6U?$char_traits@D@std@@@std@@YAAAV?$basic_ostream@DU?$char_traits@D@std@@@0@AAV10@PBD@Z$6 DQ 00000000000000040r ; 3.16202e-322
	DD	00H
	DD	FLAT:__catch$??$?6U?$char_traits@D@std@@@std@@YAAAV?$basic_ostream@DU?$char_traits@D@std@@@0@AAV10@PBD@Z$0
xdata$x	ENDS
; Function compile flags: /Ogtp
;	COMDAT _main
_TEXT	SEGMENT
_number2$1$ = -84					; size = 4
_number1$1$ = -80					; size = 4
tv844 = -76						; size = 4
_month$1$ = -76						; size = 4
_day_number$1$ = -76					; size = 4
_day$1$ = -72						; size = 4
_birthday_day$1$ = -68					; size = 4
_data$ = -64						; size = 4
_birthday$ = -60					; size = 4
_choice$ = -56						; size = 4
_month_day$ = -52					; size = 48
__$ArrayPad$ = -4					; size = 4
_main	PROC						; COMDAT
; File D:\studing\Конструирование программного обеспечения\Лабораторные работы\Lab_01\Lab_01\Zad_01\Zad_01.cpp
; Line 10
	push	ebp
	mov	ebp, esp
	and	esp, -8					; fffffff8H
	sub	esp, 84					; 00000054H
	mov	eax, DWORD PTR ___security_cookie
	xor	eax, esp
	mov	DWORD PTR __$ArrayPad$[esp+84], eax
	push	ebx
	push	esi
	push	edi
; Line 11
	push	OFFSET ??_C@_03OJJHGHEE@Rus@
	push	0
	call	DWORD PTR __imp__setlocale
; Line 15
	movaps	xmm0, XMMWORD PTR __xmm@0000001e0000001f0000001c0000001f
	add	esp, 8
	movups	XMMWORD PTR _month_day$[esp+96], xmm0
	mov	DWORD PTR _number1$1$[esp+96], 0
	movaps	xmm0, XMMWORD PTR __xmm@0000001f0000001f0000001e0000001f
	movups	XMMWORD PTR _month_day$[esp+112], xmm0
	mov	DWORD PTR _number2$1$[esp+96], 0
	movaps	xmm0, XMMWORD PTR __xmm@0000001f0000001e0000001f0000001e
	movups	XMMWORD PTR _month_day$[esp+128], xmm0
	npad	5
$LL2@main:
; Line 23
	mov	ecx, DWORD PTR __imp_?cout@std@@3V?$basic_ostream@DU?$char_traits@D@std@@@1@A
	mov	edx, OFFSET ??_C@_0DA@CAIPLFDO@?B?b?e?d?h?r?e?5?d?$OA?r?s?5?b?5?t?n?p?l?$OA?r?e?5?D?D?L?L?C?C?C?C@
	call	??$?6U?$char_traits@D@std@@@std@@YAAAV?$basic_ostream@DU?$char_traits@D@std@@@0@AAV10@PBD@Z ; std::operator<<<std::char_traits<char> >
	mov	ecx, DWORD PTR __imp_?cin@std@@3V?$basic_istream@DU?$char_traits@D@std@@@1@A
	lea	eax, DWORD PTR _data$[esp+96]
	push	eax
	call	DWORD PTR __imp_??5?$basic_istream@DU?$char_traits@D@std@@@std@@QAEAAV01@AAH@Z
; Line 24
	mov	ecx, DWORD PTR __imp_?cout@std@@3V?$basic_ostream@DU?$char_traits@D@std@@@1@A
	mov	edx, OFFSET ??_C@_0BN@NLLMMOPA@?B?b?e?d?h?r?e?5?d?$OA?r?s?5?d?m?$PP?5?p?n?f?d?e?m?m?h?$PP?3?5@
	call	??$?6U?$char_traits@D@std@@@std@@YAAAV?$basic_ostream@DU?$char_traits@D@std@@@0@AAV10@PBD@Z ; std::operator<<<std::char_traits<char> >
	mov	ecx, DWORD PTR __imp_?cin@std@@3V?$basic_istream@DU?$char_traits@D@std@@@1@A
	lea	eax, DWORD PTR _birthday$[esp+96]
	push	eax
	call	DWORD PTR __imp_??5?$basic_istream@DU?$char_traits@D@std@@@std@@QAEAAV01@AAH@Z
; Line 27
	mov	esi, DWORD PTR _data$[esp+96]
	lea	eax, DWORD PTR [esi-1]
	cmp	eax, 31129997				; 01db018dH
	ja	$LN9@main
	mov	ecx, DWORD PTR _birthday$[esp+96]
	lea	eax, DWORD PTR [ecx-1]
	cmp	eax, 31129997				; 01db018dH
	ja	$LN9@main
; Line 31
	mov	eax, 1125899907				; 431bde83H
	imul	ecx
	sar	edx, 18					; 00000012H
	mov	eax, edx
	shr	eax, 31					; 0000001fH
	add	eax, edx
	mov	DWORD PTR _birthday_day$1$[esp+96], eax
; Line 32
	imul	eax, eax, 1000000
	sub	ecx, eax
	mov	eax, 1759218605				; 68db8badH
	imul	ecx
; Line 34
	mov	eax, 1125899907				; 431bde83H
; Line 35
	mov	ecx, esi
	sar	edx, 12					; 0000000cH
	mov	ebx, edx
	shr	ebx, 31					; 0000001fH
	add	ebx, edx
	imul	esi
	sar	edx, 18					; 00000012H
	mov	edi, edx
	shr	edi, 31					; 0000001fH
	add	edi, edx
	imul	eax, edi, 1000000
	mov	DWORD PTR _day$1$[esp+96], edi
	sub	ecx, eax
	mov	eax, 1759218605				; 68db8badH
	imul	ecx
; Line 36
	imul	eax, edi, 100
	sar	edx, 12					; 0000000cH
	mov	ecx, edx
	shr	ecx, 31					; 0000001fH
	add	ecx, edx
	add	eax, ecx
	mov	DWORD PTR _month$1$[esp+96], ecx
	imul	eax, eax, 10000
	sub	esi, eax
; Line 38
	lea	eax, DWORD PTR [edi-1]
	cmp	eax, 30					; 0000001eH
	ja	$LN9@main
	lea	edi, DWORD PTR [ecx-1]
	cmp	edi, 11					; 0000000bH
	ja	$LN9@main
	mov	eax, DWORD PTR _birthday_day$1$[esp+96]
	dec	eax
	cmp	eax, 30					; 0000001eH
	ja	$LN9@main
	dec	ebx
	cmp	ebx, 11					; 0000000bH
	ja	$LN9@main
; Line 40
	mov	ecx, DWORD PTR __imp_?cout@std@@3V?$basic_ostream@DU?$char_traits@D@std@@@1@A
	push	OFFSET ??$endl@DU?$char_traits@D@std@@@std@@YAAAV?$basic_ostream@DU?$char_traits@D@std@@@0@AAV10@@Z ; std::endl<char,std::char_traits<char> >
	push	DWORD PTR _day$1$[esp+100]
	call	DWORD PTR __imp_??6?$basic_ostream@DU?$char_traits@D@std@@@std@@QAEAAV01@H@Z
	mov	ecx, eax
	call	DWORD PTR __imp_??6?$basic_ostream@DU?$char_traits@D@std@@@std@@QAEAAV01@P6AAAV01@AAV01@@Z@Z
; Line 41
	mov	ecx, DWORD PTR __imp_?cout@std@@3V?$basic_ostream@DU?$char_traits@D@std@@@1@A
	push	OFFSET ??$endl@DU?$char_traits@D@std@@@std@@YAAAV?$basic_ostream@DU?$char_traits@D@std@@@0@AAV10@@Z ; std::endl<char,std::char_traits<char> >
	push	DWORD PTR _month$1$[esp+100]
	call	DWORD PTR __imp_??6?$basic_ostream@DU?$char_traits@D@std@@@std@@QAEAAV01@H@Z
	mov	ecx, eax
	call	DWORD PTR __imp_??6?$basic_ostream@DU?$char_traits@D@std@@@std@@QAEAAV01@P6AAAV01@AAV01@@Z@Z
; Line 42
	mov	ecx, DWORD PTR __imp_?cout@std@@3V?$basic_ostream@DU?$char_traits@D@std@@@1@A
	push	OFFSET ??$endl@DU?$char_traits@D@std@@@std@@YAAAV?$basic_ostream@DU?$char_traits@D@std@@@0@AAV10@@Z ; std::endl<char,std::char_traits<char> >
	push	esi
	call	DWORD PTR __imp_??6?$basic_ostream@DU?$char_traits@D@std@@@std@@QAEAAV01@H@Z
	mov	ecx, eax
	call	DWORD PTR __imp_??6?$basic_ostream@DU?$char_traits@D@std@@@std@@QAEAAV01@P6AAAV01@AAV01@@Z@Z
; Line 110
	mov	eax, esi
	and	eax, -2147483645			; 80000003H
	jns	SHORT $LN62@main
	dec	eax
	or	eax, -4					; fffffffcH
	add	eax, 1
$LN62@main:
	jne	SHORT $LN18@main
	mov	eax, 1374389535				; 51eb851fH
	imul	esi
	sar	edx, 5
	mov	eax, edx
	shr	eax, 31					; 0000001fH
	add	eax, edx
	imul	eax, eax, 100
	sub	esi, eax
	je	SHORT $LN18@main
; Line 112
	push	OFFSET ??$endl@DU?$char_traits@D@std@@@std@@YAAAV?$basic_ostream@DU?$char_traits@D@std@@@0@AAV10@@Z ; std::endl<char,std::char_traits<char> >
	push	ecx
	mov	ecx, DWORD PTR __imp_?cout@std@@3V?$basic_ostream@DU?$char_traits@D@std@@@1@A
	mov	edx, OFFSET ??_C@_0BG@PNINEMMD@?$NN?r?n?r?5?c?n?d?5?b?h?q?n?j?n?q?m?$PL?i?$CB?5@
	call	??$?6U?$char_traits@D@std@@@std@@YAAAV?$basic_ostream@DU?$char_traits@D@std@@@0@AAV10@PBD@Z ; std::operator<<<std::char_traits<char> >
	add	esp, 4
	mov	ecx, eax
	call	DWORD PTR __imp_??6?$basic_ostream@DU?$char_traits@D@std@@@std@@QAEAAV01@P6AAAV01@AAV01@@Z@Z
; Line 113
	mov	DWORD PTR _month_day$[esp+100], 29	; 0000001dH
; Line 115
	jmp	SHORT $LN19@main
$LN18@main:
; Line 118
	push	OFFSET ??$endl@DU?$char_traits@D@std@@@std@@YAAAV?$basic_ostream@DU?$char_traits@D@std@@@0@AAV10@@Z ; std::endl<char,std::char_traits<char> >
	push	ecx
	mov	ecx, DWORD PTR __imp_?cout@std@@3V?$basic_ostream@DU?$char_traits@D@std@@@1@A
	mov	edx, OFFSET ??_C@_0BD@GEEDNKFK@?C?n?d?5?m?e?5?b?h?q?n?j?n?q?m?$PL?i?$CB@
	call	??$?6U?$char_traits@D@std@@@std@@YAAAV?$basic_ostream@DU?$char_traits@D@std@@@0@AAV10@PBD@Z ; std::operator<<<std::char_traits<char> >
	add	esp, 4
	mov	ecx, eax
	call	DWORD PTR __imp_??6?$basic_ostream@DU?$char_traits@D@std@@@std@@QAEAAV01@P6AAAV01@AAV01@@Z@Z
$LN19@main:
; Line 102
	xor	eax, eax
	test	edi, edi
	jle	SHORT $LN32@main
	cmp	edi, 8
	jb	SHORT $LN32@main
	mov	ecx, edi
	and	ecx, -2147483641			; 80000007H
	jns	SHORT $LN63@main
	dec	ecx
	or	ecx, -8					; fffffff8H
	inc	ecx
$LN63@main:
	mov	edx, edi
	xorps	xmm2, xmm2
	sub	edx, ecx
	xorps	xmm1, xmm1
	npad	13
$LL24@main:
; Line 104
	movups	xmm0, XMMWORD PTR _month_day$[esp+eax*4+96]
	paddd	xmm2, xmm0
	movups	xmm0, XMMWORD PTR _month_day$[esp+eax*4+112]
	add	eax, 8
	paddd	xmm1, xmm0
	cmp	eax, edx
	jl	SHORT $LL24@main
; Line 102
	paddd	xmm1, xmm2
	movaps	xmm0, xmm1
	psrldq	xmm0, 8
	paddd	xmm1, xmm0
	movups	xmm0, xmm1
	psrldq	xmm0, 4
	paddd	xmm1, xmm0
	movd	ecx, xmm1
; Line 104
	add	DWORD PTR _number1$1$[esp+96], ecx
$LN32@main:
	xor	edx, edx
	xor	esi, esi
; Line 102
	cmp	eax, edi
	jge	SHORT $LN57@main
	mov	ecx, edi
	sub	ecx, eax
	cmp	ecx, 2
	jl	SHORT $LN56@main
	lea	ecx, DWORD PTR [edi-1]
	mov	DWORD PTR tv844[esp+96], ecx
$LL45@main:
; Line 104
	add	edx, DWORD PTR _month_day$[esp+eax*4+96]
	add	esi, DWORD PTR _month_day$[esp+eax*4+100]
	add	eax, 2
	mov	ecx, eax
	cmp	eax, DWORD PTR tv844[esp+96]
	jl	SHORT $LL45@main
; Line 102
	cmp	ecx, edi
	jge	SHORT $LN58@main
$LN56@main:
; Line 104
	mov	ecx, DWORD PTR _number1$1$[esp+96]
	add	ecx, DWORD PTR _month_day$[esp+eax*4+96]
	lea	eax, DWORD PTR [esi+edx]
	add	ecx, eax
	mov	DWORD PTR _number1$1$[esp+96], ecx
; Line 102
	jmp	SHORT $LN42@main
$LN58@main:
	mov	ecx, DWORD PTR _number1$1$[esp+96]
	lea	eax, DWORD PTR [esi+edx]
	add	ecx, eax
	mov	DWORD PTR _number1$1$[esp+96], ecx
	jmp	SHORT $LN42@main
$LN57@main:
	mov	ecx, DWORD PTR _number1$1$[esp+96]
$LN42@main:
; Line 48
	mov	eax, DWORD PTR _day$1$[esp+96]
	add	eax, ecx
	xor	ecx, ecx
	mov	DWORD PTR _day_number$1$[esp+96], eax
; Line 50
	test	ebx, ebx
	jle	SHORT $LN61@main
	cmp	ebx, 8
	jb	SHORT $LN61@main
; Line 48
	mov	eax, ebx
	and	eax, -2147483641			; 80000007H
	jns	SHORT $LN64@main
	dec	eax
	or	eax, -8					; fffffff8H
	inc	eax
$LN64@main:
	mov	edx, ebx
	xorps	xmm2, xmm2
	sub	edx, eax
	xorps	xmm1, xmm1
	npad	1
$LL6@main:
; Line 53
	movups	xmm0, XMMWORD PTR _month_day$[esp+ecx*4+96]
	paddd	xmm2, xmm0
	movups	xmm0, XMMWORD PTR _month_day$[esp+ecx*4+112]
	add	ecx, 8
	paddd	xmm1, xmm0
	cmp	ecx, edx
	jl	SHORT $LL6@main
	mov	edi, DWORD PTR _number2$1$[esp+96]
	paddd	xmm1, xmm2
	movaps	xmm0, xmm1
	psrldq	xmm0, 8
	paddd	xmm1, xmm0
	movups	xmm0, xmm1
	psrldq	xmm0, 4
	paddd	xmm1, xmm0
	movd	eax, xmm1
	add	edi, eax
	mov	DWORD PTR _number2$1$[esp+96], edi
	jmp	SHORT $LN34@main
$LN61@main:
; Line 50
	mov	edi, DWORD PTR _number2$1$[esp+96]
$LN34@main:
	xor	edx, edx
	xor	esi, esi
	cmp	ecx, ebx
	jge	SHORT $LN46@main
	mov	eax, ebx
	sub	eax, ecx
	cmp	eax, 2
	jl	SHORT $LN55@main
	lea	edi, DWORD PTR [ebx-1]
	npad	3
$LL49@main:
; Line 53
	add	edx, DWORD PTR _month_day$[esp+ecx*4+96]
	add	esi, DWORD PTR _month_day$[esp+ecx*4+100]
	add	ecx, 2
	mov	eax, ecx
	cmp	ecx, edi
	jl	SHORT $LL49@main
; Line 50
	mov	edi, DWORD PTR _number2$1$[esp+96]
	cmp	eax, ebx
	jge	SHORT $LN48@main
$LN55@main:
; Line 53
	add	edi, DWORD PTR _month_day$[esp+ecx*4+96]
$LN48@main:
	lea	eax, DWORD PTR [esi+edx]
	add	edi, eax
	mov	DWORD PTR _number2$1$[esp+96], edi
$LN46@main:
; Line 57
	add	edi, DWORD PTR _birthday_day$1$[esp+96]
	mov	eax, DWORD PTR _day_number$1$[esp+96]
	mov	esi, edi
	sub	esi, eax
; Line 60
	jns	SHORT $LN13@main
; Line 63
	mov	esi, eax
	sub	esi, edi
	add	esi, 365				; 0000016dH
$LN13@main:
; Line 66
	mov	ecx, DWORD PTR __imp_?cout@std@@3V?$basic_ostream@DU?$char_traits@D@std@@@1@A
	mov	edx, OFFSET ??_C@_0BD@IKDKPIAI@?O?n?p?$PP?d?j?n?b?$PL?i?5?m?n?l?e?p?3?5@
	push	OFFSET ??$endl@DU?$char_traits@D@std@@@std@@YAAAV?$basic_ostream@DU?$char_traits@D@std@@@0@AAV10@@Z ; std::endl<char,std::char_traits<char> >
	push	eax
	call	??$?6U?$char_traits@D@std@@@std@@YAAAV?$basic_ostream@DU?$char_traits@D@std@@@0@AAV10@PBD@Z ; std::operator<<<std::char_traits<char> >
	mov	ecx, eax
	call	DWORD PTR __imp_??6?$basic_ostream@DU?$char_traits@D@std@@@std@@QAEAAV01@H@Z
	mov	ecx, eax
	call	DWORD PTR __imp_??6?$basic_ostream@DU?$char_traits@D@std@@@std@@QAEAAV01@P6AAAV01@AAV01@@Z@Z
; Line 67
	mov	ecx, DWORD PTR __imp_?cout@std@@3V?$basic_ostream@DU?$char_traits@D@std@@@1@A
	mov	edx, OFFSET ??_C@_0CA@MNLKCKLN@?O?n?p?$PP?d?j?n?b?$PL?i?5?m?n?l?e?p?5?d?m?$PP?5?p?n?f?d?e?m?h?$PP?3?5@
	push	OFFSET ??$endl@DU?$char_traits@D@std@@@std@@YAAAV?$basic_ostream@DU?$char_traits@D@std@@@0@AAV10@@Z ; std::endl<char,std::char_traits<char> >
	push	edi
	call	??$?6U?$char_traits@D@std@@@std@@YAAAV?$basic_ostream@DU?$char_traits@D@std@@@0@AAV10@PBD@Z ; std::operator<<<std::char_traits<char> >
	mov	ecx, eax
	call	DWORD PTR __imp_??6?$basic_ostream@DU?$char_traits@D@std@@@std@@QAEAAV01@H@Z
	mov	ecx, eax
	call	DWORD PTR __imp_??6?$basic_ostream@DU?$char_traits@D@std@@@std@@QAEAAV01@P6AAAV01@AAV01@@Z@Z
; Line 68
	mov	ecx, DWORD PTR __imp_?cout@std@@3V?$basic_ostream@DU?$char_traits@D@std@@@1@A
	mov	edx, OFFSET ??_C@_0CC@DHIPJDDH@?D?m?e?i?5?d?n?5?a?k?h?f?$OA?i?x?e?c?n?5?d?m?$PP?5?p?n?f?d?e?m?h?$PP@
	push	OFFSET ??$endl@DU?$char_traits@D@std@@@std@@YAAAV?$basic_ostream@DU?$char_traits@D@std@@@0@AAV10@@Z ; std::endl<char,std::char_traits<char> >
	push	esi
	call	??$?6U?$char_traits@D@std@@@std@@YAAAV?$basic_ostream@DU?$char_traits@D@std@@@0@AAV10@PBD@Z ; std::operator<<<std::char_traits<char> >
	mov	ecx, eax
	call	DWORD PTR __imp_??6?$basic_ostream@DU?$char_traits@D@std@@@std@@QAEAAV01@H@Z
; Line 69
	jmp	SHORT $LN65@main
$LN9@main:
; Line 88
	push	OFFSET ??$endl@DU?$char_traits@D@std@@@std@@YAAAV?$basic_ostream@DU?$char_traits@D@std@@@0@AAV10@@Z ; std::endl<char,std::char_traits<char> >
	push	ecx
	mov	ecx, DWORD PTR __imp_?cout@std@@3V?$basic_ostream@DU?$char_traits@D@std@@@1@A
	mov	edx, OFFSET ??_C@_07GAHJDHGN@?6Error?$CB@
	call	??$?6U?$char_traits@D@std@@@std@@YAAAV?$basic_ostream@DU?$char_traits@D@std@@@0@AAV10@PBD@Z ; std::operator<<<std::char_traits<char> >
	add	esp, 4
$LN65@main:
	mov	ecx, eax
	call	DWORD PTR __imp_??6?$basic_ostream@DU?$char_traits@D@std@@@std@@QAEAAV01@P6AAAV01@AAV01@@Z@Z
	mov	ecx, DWORD PTR __imp_?cout@std@@3V?$basic_ostream@DU?$char_traits@D@std@@@1@A
	mov	edx, OFFSET ??_C@_0CD@KJOIHFHK@?F?e?k?$OA?e?r?e?5?o?p?n?d?n?k?f?h?r?$PM?$DP?$CI1?9?D?$MA?0?52?9?M?E?R@
	call	??$?6U?$char_traits@D@std@@@std@@YAAAV?$basic_ostream@DU?$char_traits@D@std@@@0@AAV10@PBD@Z ; std::operator<<<std::char_traits<char> >
	mov	ecx, DWORD PTR __imp_?cin@std@@3V?$basic_istream@DU?$char_traits@D@std@@@1@A
	lea	eax, DWORD PTR _choice$[esp+96]
	push	eax
	call	DWORD PTR __imp_??5?$basic_istream@DU?$char_traits@D@std@@@std@@QAEAAV01@AAH@Z
	jmp	$LL2@main
_main	ENDP
_TEXT	ENDS
END
